; Function Attrs: nounwind uwtable
define void @Java_java_util_zip_Inflater_setDictionary(ptr noundef %0, ptr nocapture noundef readnone %1, i64 noundef %2, ptr noundef %3, i32 noundef %4, i32 noundef %5) local_unnamed_addr #0 {
  %7 = load ptr, ptr %0, align 8
  %8 = getelementptr inbounds i8, ptr %7, i64 1776
  %9 = load ptr, ptr %8, align 8
  %10 = tail call ptr %9(ptr noundef nonnull %0, ptr noundef %3, ptr noundef null) #5
  %11 = icmp eq ptr %10, null
  br i1 %11, label %checkSetDictionaryResult.exit, label %12

12:                                               ; preds = %6
  %13 = inttoptr i64 %2 to ptr
  %14 = sext i32 %4 to i64
  %15 = getelementptr inbounds i8, ptr %10, i64 %14
  %16 = tail call i32 @inflateSetDictionary(ptr noundef %13, ptr noundef nonnull %15, i32 noundef %5) #5
  %17 = load ptr, ptr %0, align 8
  %18 = getelementptr inbounds i8, ptr %17, i64 1784
  %19 = load ptr, ptr %18, align 8
  tail call void %19(ptr noundef nonnull %0, ptr noundef %3, ptr noundef nonnull %10, i32 noundef 0) #5
  switch i32 %16, label %23 [
    i32 0, label %checkSetDictionaryResult.exit
    i32 -2, label %20
    i32 -3, label %20
  ]

20:                                               ; preds = %12, %12
  %21 = getelementptr inbounds i8, ptr %13, i64 48
  %22 = load ptr, ptr %21, align 8
  tail call void @JNU_ThrowIllegalArgumentException(ptr noundef nonnull %0, ptr noundef %22) #5
  br label %checkSetDictionaryResult.exit

23:                                               ; preds = %12
  %24 = getelementptr inbounds i8, ptr %13, i64 48
  %25 = load ptr, ptr %24, align 8
  tail call void @JNU_ThrowInternalError(ptr noundef nonnull %0, ptr noundef %25) #5
  br label %checkSetDictionaryResult.exit

checkSetDictionaryResult.exit:                    ; preds = %23, %20, %12, %6
  ret void
}